; Function Attrs: mustprogress uwtable
define noalias noundef ptr @_Z11save_mallocPKcS0_im(ptr noundef %0, ptr noundef %1, i32 noundef %2, i64 noundef %3) local_unnamed_addr #0 personality ptr @__gxx_personality_v0 {
  %5 = alloca %"class.std::filesystem::__cxx11::path", align 8
  %6 = icmp eq i64 %3, 0
  br i1 %6, label %15, label %7

7:                                                ; preds = %4
  %calloc = tail call ptr @calloc(i64 1, i64 %3)
  %8 = icmp eq ptr %calloc, null
  br i1 %8, label %9, label %15

9:                                                ; preds = %7
  %10 = tail call ptr @__errno_location() #16
  %11 = load i32, ptr %10, align 4
  call void @_ZNSt10filesystem7__cxx114pathC2IA125_cS1_EERKT_NS1_6formatE(ptr noundef nonnull align 8 dereferenceable(40) %5, ptr noundef nonnull align 1 dereferenceable(125) @.str, i8 noundef zeroext 2)
  invoke void (i32, ptr, i32, ptr, ...) @_Z9gmx_fataliRKNSt10filesystem7__cxx114pathEiPKcz(i32 noundef %11, ptr noundef nonnull align 8 dereferenceable(40) %5, i32 noundef 73, ptr noundef nonnull @.str.1, i64 noundef %3, ptr noundef %0, ptr noundef %1, i32 noundef %2) #17
          to label %12 unwind label %13

12:                                               ; preds = %9
  unreachable

13:                                               ; preds = %9
  %14 = landingpad { ptr, i32 }
          cleanup
  call void @_ZNSt10filesystem7__cxx114pathD2Ev(ptr noundef nonnull align 8 dereferenceable(40) %5) #18
  resume { ptr, i32 } %14

15:                                               ; preds = %7, %4
  %.0 = phi ptr [ null, %4 ], [ %calloc, %7 ]
  ret ptr %.0
}